target datalayout = "e-m:e-p270:32:32-p271:32:32-p272:64:64-i64:64-i128:128-f80:128-n8:16:32:64-S128"
target triple = "x86_64-pc-linux-gnu"

%struct.BuildTarget = type { i32, ptr, ptr, ptr, ptr, ptr, ptr, ptr, ptr, ptr, ptr, ptr, ptr, ptr, ptr, ptr, ptr, ptr, ptr, i8, i8, i8, i8, i8, i8, i8, i8, i8, i8, i8, i8, i8, i8, i8, i8, i8, i8, i8, i8, i32, i32, i32, i32, i32, i32, i32, i32, i32, i32, i32, i32, i32, i32, i32, i32, i32, i32, ptr, ptr, ptr, ptr, ptr, ptr, ptr, ptr, ptr, ptr, %struct.anon, %struct.anon.0, %struct.anon.1, %struct.anon.2 }
%struct.anon = type { i16, i32, i32, i32 }
%struct.anon.0 = type { ptr, ptr, ptr, ptr }
%struct.anon.1 = type { ptr, ptr, i32, i8 }
%struct.anon.2 = type { ptr, ptr }
%struct.VHeader_ = type { i32, i32, [0 x i8] }
%struct.Library = type { ptr, ptr, ptr, ptr, ptr, ptr }
%struct.LibraryTarget = type { i32, ptr, ptr, ptr, ptr }

@active_target = external global %struct.BuildTarget, align 8
@arch_os_target = external global [25 x ptr], align 16
@.str.27 = private unnamed_addr constant [47 x i8] c"Library '%s' cannot be used with arch/os '%s'.\00", align 1
@.str.28 = private unnamed_addr constant [127 x i8] c"Required library '%s' could not be found. You can add additional library search paths using '--libdir' in case you forgot one.\00", align 1

; Function Attrs: nounwind uwtable
define internal ptr @find_library(ptr noundef %0, i64 noundef %1, ptr noundef %2) #0 {
  %4 = alloca ptr, align 8
  %5 = alloca i64, align 8
  %6 = alloca ptr, align 8
  %7 = alloca i64, align 8
  store ptr %0, ptr %4, align 8
  store i64 %1, ptr %5, align 8
  store ptr %2, ptr %6, align 8
  store i64 0, ptr %7, align 8
  br label %8

8:                                                ; preds = %27, %3
  %9 = load i64, ptr %7, align 8
  %10 = load i64, ptr %5, align 8
  %11 = icmp ult i64 %9, %10
  br i1 %11, label %12, label %30

12:                                               ; preds = %8
  %13 = load ptr, ptr %4, align 8
  %14 = load i64, ptr %7, align 8
  %15 = getelementptr inbounds ptr, ptr %13, i64 %14
  %16 = load ptr, ptr %15, align 8
  %17 = getelementptr inbounds %struct.Library, ptr %16, i32 0, i32 1
  %18 = load ptr, ptr %17, align 8
  %19 = load ptr, ptr %6, align 8
  %20 = call zeroext i1 @str_eq(ptr noundef %18, ptr noundef %19)
  br i1 %20, label %21, label %26

21:                                               ; preds = %12
  %22 = load ptr, ptr %4, align 8
  %23 = load i64, ptr %7, align 8
  %24 = getelementptr inbounds ptr, ptr %22, i64 %23
  %25 = load ptr, ptr %24, align 8
  ret ptr %25

26:                                               ; preds = %12
  br label %27

27:                                               ; preds = %26
  %28 = load i64, ptr %7, align 8
  %29 = add i64 %28, 1
  store i64 %29, ptr %7, align 8
  br label %8, !llvm.loop !18

30:                                               ; preds = %8
  %31 = load ptr, ptr %6, align 8
  call void (ptr, ...) @error_exit(ptr noundef @.str.28, ptr noundef %31) #8
  unreachable
}

; Function Attrs: nounwind uwtable
define internal void @add_library_dependency(ptr noundef %0, ptr noundef %1, i64 noundef %2) #0 {
  %4 = alloca i32, align 4
  %5 = alloca ptr, align 8
  %6 = alloca ptr, align 8
  %7 = alloca i32, align 4
  %8 = alloca ptr, align 8
  %9 = alloca ptr, align 8
  %10 = alloca i32, align 4
  %11 = alloca ptr, align 8
  %12 = alloca ptr, align 8
  %13 = alloca ptr, align 8
  %14 = alloca ptr, align 8
  %15 = alloca i64, align 8
  %16 = alloca ptr, align 8
  %17 = alloca i32, align 4
  %18 = alloca i32, align 4
  %19 = alloca ptr, align 8
  %20 = alloca i32, align 4
  %21 = alloca i32, align 4
  %22 = alloca i32, align 4
  %23 = alloca i32, align 4
  store ptr %0, ptr %13, align 8
  store ptr %1, ptr %14, align 8
  store i64 %2, ptr %15, align 8
  %24 = load ptr, ptr %13, align 8
  %25 = getelementptr inbounds %struct.Library, ptr %24, i32 0, i32 4
  %26 = load ptr, ptr %25, align 8
  %27 = icmp ne ptr %26, null
  br i1 %27, label %28, label %29

28:                                               ; preds = %3
  br label %148

29:                                               ; preds = %3
  store ptr null, ptr %16, align 8
  store i32 0, ptr %17, align 4
  %30 = load ptr, ptr %13, align 8
  %31 = getelementptr inbounds %struct.Library, ptr %30, i32 0, i32 5
  %32 = load ptr, ptr %31, align 8
  store ptr %32, ptr %5, align 8
  %33 = load ptr, ptr %5, align 8
  %34 = icmp ne ptr %33, null
  br i1 %34, label %36, label %35

35:                                               ; preds = %29
  store i32 0, ptr %4, align 4
  br label %41

36:                                               ; preds = %29
  %37 = load ptr, ptr %5, align 8
  store ptr %37, ptr %6, align 8
  %38 = load ptr, ptr %6, align 8
  %39 = getelementptr inbounds %struct.VHeader_, ptr %38, i64 -1
  %40 = load i32, ptr %39, align 4
  store i32 %40, ptr %4, align 4
  br label %41

41:                                               ; preds = %36, %35
  %42 = load i32, ptr %4, align 4
  store i32 %42, ptr %18, align 4
  br label %43

43:                                               ; preds = %63, %41
  %44 = load i32, ptr %17, align 4
  %45 = load i32, ptr %18, align 4
  %46 = icmp ult i32 %44, %45
  br i1 %46, label %47, label %66

47:                                               ; preds = %43
  %48 = load ptr, ptr %13, align 8
  %49 = getelementptr inbounds %struct.Library, ptr %48, i32 0, i32 5
  %50 = load ptr, ptr %49, align 8
  %51 = load i32, ptr %17, align 4
  %52 = zext i32 %51 to i64
  %53 = getelementptr inbounds ptr, ptr %50, i64 %52
  %54 = load ptr, ptr %53, align 8
  store ptr %54, ptr %19, align 8
  %55 = load ptr, ptr %19, align 8
  %56 = getelementptr inbounds %struct.LibraryTarget, ptr %55, i32 0, i32 0
  %57 = load i32, ptr %56, align 8
  %58 = load i32, ptr getelementptr inbounds (%struct.BuildTarget, ptr @active_target, i32 0, i32 52), align 8
  %59 = icmp eq i32 %57, %58
  br i1 %59, label %60, label %62

60:                                               ; preds = %47
  %61 = load ptr, ptr %19, align 8
  store ptr %61, ptr %16, align 8
  br label %66

62:                                               ; preds = %47
  br label %63

63:                                               ; preds = %62
  %64 = load i32, ptr %17, align 4
  %65 = add i32 %64, 1
  store i32 %65, ptr %17, align 4
  br label %43, !llvm.loop !15

66:                                               ; preds = %60, %43
  %67 = load ptr, ptr %16, align 8
  %68 = icmp ne ptr %67, null
  br i1 %68, label %77, label %69

69:                                               ; preds = %66
  %70 = load ptr, ptr %13, align 8
  %71 = getelementptr inbounds %struct.Library, ptr %70, i32 0, i32 1
  %72 = load ptr, ptr %71, align 8
  %73 = load i32, ptr getelementptr inbounds (%struct.BuildTarget, ptr @active_target, i32 0, i32 52), align 8
  %74 = zext i32 %73 to i64
  %75 = getelementptr inbounds [25 x ptr], ptr @arch_os_target, i64 0, i64 %74
  %76 = load ptr, ptr %75, align 8
  call void (ptr, ...) @error_exit(ptr noundef @.str.27, ptr noundef %72, ptr noundef %76) #8
  unreachable

77:                                               ; preds = %66
  %78 = load ptr, ptr %16, align 8
  %79 = load ptr, ptr %13, align 8
  %80 = getelementptr inbounds %struct.Library, ptr %79, i32 0, i32 4
  store ptr %78, ptr %80, align 8
  store i32 0, ptr %20, align 4
  %81 = load ptr, ptr %13, align 8
  %82 = getelementptr inbounds %struct.Library, ptr %81, i32 0, i32 2
  %83 = load ptr, ptr %82, align 8
  store ptr %83, ptr %8, align 8
  %84 = load ptr, ptr %8, align 8
  %85 = icmp ne ptr %84, null
  br i1 %85, label %87, label %86

86:                                               ; preds = %77
  store i32 0, ptr %7, align 4
  br label %92

87:                                               ; preds = %77
  %88 = load ptr, ptr %8, align 8
  store ptr %88, ptr %9, align 8
  %89 = load ptr, ptr %9, align 8
  %90 = getelementptr inbounds %struct.VHeader_, ptr %89, i64 -1
  %91 = load i32, ptr %90, align 4
  store i32 %91, ptr %7, align 4
  br label %92

92:                                               ; preds = %87, %86
  %93 = load i32, ptr %7, align 4
  store i32 %93, ptr %21, align 4
  br label %94

94:                                               ; preds = %111, %92
  %95 = load i32, ptr %20, align 4
  %96 = load i32, ptr %21, align 4
  %97 = icmp ult i32 %95, %96
  br i1 %97, label %98, label %114

98:                                               ; preds = %94
  %99 = load ptr, ptr %14, align 8
  %100 = load i64, ptr %15, align 8
  %101 = load ptr, ptr %13, align 8
  %102 = getelementptr inbounds %struct.Library, ptr %101, i32 0, i32 2
  %103 = load ptr, ptr %102, align 8
  %104 = load i32, ptr %20, align 4
  %105 = zext i32 %104 to i64
  %106 = getelementptr inbounds ptr, ptr %103, i64 %105
  %107 = load ptr, ptr %106, align 8
  %108 = call ptr @find_library(ptr noundef %99, i64 noundef %100, ptr noundef %107)
  %109 = load ptr, ptr %14, align 8
  %110 = load i64, ptr %15, align 8
  call void @add_library_dependency(ptr noundef %108, ptr noundef %109, i64 noundef %110)
  br label %111

111:                                              ; preds = %98
  %112 = load i32, ptr %20, align 4
  %113 = add i32 %112, 1
  store i32 %113, ptr %20, align 4
  br label %94, !llvm.loop !16

114:                                              ; preds = %94
  store i32 0, ptr %22, align 4
  %115 = load ptr, ptr %16, align 8
  %116 = getelementptr inbounds %struct.LibraryTarget, ptr %115, i32 0, i32 4
  %117 = load ptr, ptr %116, align 8
  store ptr %117, ptr %11, align 8
  %118 = load ptr, ptr %11, align 8
  %119 = icmp ne ptr %118, null
  br i1 %119, label %121, label %120

120:                                              ; preds = %114
  store i32 0, ptr %10, align 4
  br label %126

121:                                              ; preds = %114
  %122 = load ptr, ptr %11, align 8
  store ptr %122, ptr %12, align 8
  %123 = load ptr, ptr %12, align 8
  %124 = getelementptr inbounds %struct.VHeader_, ptr %123, i64 -1
  %125 = load i32, ptr %124, align 4
  store i32 %125, ptr %10, align 4
  br label %126

126:                                              ; preds = %121, %120
  %127 = load i32, ptr %10, align 4
  store i32 %127, ptr %23, align 4
  br label %128

128:                                              ; preds = %145, %126
  %129 = load i32, ptr %22, align 4
  %130 = load i32, ptr %23, align 4
  %131 = icmp ult i32 %129, %130
  br i1 %131, label %132, label %148

132:                                              ; preds = %128
  %133 = load ptr, ptr %14, align 8
  %134 = load i64, ptr %15, align 8
  %135 = load ptr, ptr %16, align 8
  %136 = getelementptr inbounds %struct.LibraryTarget, ptr %135, i32 0, i32 4
  %137 = load ptr, ptr %136, align 8
  %138 = load i32, ptr %22, align 4
  %139 = zext i32 %138 to i64
  %140 = getelementptr inbounds ptr, ptr %137, i64 %139
  %141 = load ptr, ptr %140, align 8
  %142 = call ptr @find_library(ptr noundef %133, i64 noundef %134, ptr noundef %141)
  %143 = load ptr, ptr %14, align 8
  %144 = load i64, ptr %15, align 8
  call void @add_library_dependency(ptr noundef %142, ptr noundef %143, i64 noundef %144)
  br label %145

145:                                              ; preds = %132
  %146 = load i32, ptr %22, align 4
  %147 = add i32 %146, 1
  store i32 %147, ptr %22, align 4
  br label %128, !llvm.loop !17

148:                                              ; preds = %128, %28
  ret void
}