; Function Attrs: nounwind uwtable
define internal fastcc void @add_library_dependency(ptr nocapture noundef %0, ptr noundef %1, i64 noundef %2) unnamed_addr #0 {
  %4 = getelementptr inbounds i8, ptr %0, i64 32
  %5 = load ptr, ptr %4, align 8
  %.not = icmp eq ptr %5, null
  br i1 %.not, label %6, label %.loopexit

6:                                                ; preds = %3
  %7 = getelementptr inbounds i8, ptr %0, i64 40
  %8 = load ptr, ptr %7, align 8
  %.not53 = icmp eq ptr %8, null
  br i1 %.not53, label %.thread, label %9

.thread:                                          ; preds = %6
  %.pre106 = load i32, ptr getelementptr inbounds (%struct.BuildTarget, ptr @active_target, i64 0, i32 52), align 8
  br label %._crit_edge

9:                                                ; preds = %6
  %10 = getelementptr inbounds i8, ptr %8, i64 -8
  %11 = load i32, ptr %10, align 4
  %.not83 = icmp eq i32 %11, 0
  %.pre = load i32, ptr getelementptr inbounds (%struct.BuildTarget, ptr @active_target, i64 0, i32 52), align 8
  br i1 %.not83, label %._crit_edge, label %.lr.ph

.lr.ph:                                           ; preds = %9
  %wide.trip.count = zext i32 %11 to i64
  br label %13

12:                                               ; preds = %13
  %indvars.iv.next = add nuw nsw i64 %indvars.iv, 1
  %exitcond.not = icmp eq i64 %indvars.iv.next, %wide.trip.count
  br i1 %exitcond.not, label %._crit_edge, label %13, !llvm.loop !19

13:                                               ; preds = %.lr.ph, %12
  %indvars.iv = phi i64 [ 0, %.lr.ph ], [ %indvars.iv.next, %12 ]
  %14 = getelementptr inbounds ptr, ptr %8, i64 %indvars.iv
  %15 = load ptr, ptr %14, align 8
  %16 = load i32, ptr %15, align 8
  %17 = icmp eq i32 %16, %.pre
  br i1 %17, label %23, label %12

._crit_edge:                                      ; preds = %12, %.thread, %9
  %.pre107 = phi i32 [ %.pre106, %.thread ], [ %.pre, %9 ], [ %.pre, %12 ]
  %18 = getelementptr inbounds i8, ptr %0, i64 8
  %19 = load ptr, ptr %18, align 8
  %20 = zext i32 %.pre107 to i64
  %21 = getelementptr inbounds [25 x ptr], ptr @arch_os_target, i64 0, i64 %20
  %22 = load ptr, ptr %21, align 8
  tail call void (ptr, ...) @error_exit(ptr noundef nonnull @.str.27, ptr noundef %19, ptr noundef %22) #9
  unreachable

23:                                               ; preds = %13
  store ptr %15, ptr %4, align 8
  %24 = getelementptr inbounds i8, ptr %0, i64 16
  %25 = load ptr, ptr %24, align 8
  %.not55 = icmp eq ptr %25, null
  br i1 %.not55, label %._crit_edge79, label %26

26:                                               ; preds = %23
  %27 = getelementptr inbounds i8, ptr %25, i64 -8
  %28 = load i32, ptr %27, align 4
  %.not84 = icmp eq i32 %28, 0
  br i1 %.not84, label %._crit_edge79, label %.lr.ph78

.lr.ph78:                                         ; preds = %26
  %.not.i = icmp eq i64 %2, 0
  br i1 %.not.i, label %.lr.ph78.split.us, label %.lr.ph.i.preheader.preheader

.lr.ph.i.preheader.preheader:                     ; preds = %.lr.ph78
  %wide.trip.count97 = zext i32 %28 to i64
  br label %.lr.ph.i.preheader

.lr.ph78.split.us:                                ; preds = %.lr.ph78
  %29 = load ptr, ptr %25, align 8
  br label %._crit_edge.i

.lr.ph.i.preheader:                               ; preds = %.lr.ph.i.preheader.preheader, %find_library.exit
  %indvars.iv94 = phi i64 [ 0, %.lr.ph.i.preheader.preheader ], [ %indvars.iv.next95, %find_library.exit ]
  %30 = load ptr, ptr %24, align 8
  %31 = getelementptr inbounds ptr, ptr %30, i64 %indvars.iv94
  %32 = load ptr, ptr %31, align 8
  br label %.lr.ph.i

.lr.ph.i:                                         ; preds = %.lr.ph.i.preheader, %38
  %.08.i = phi i64 [ %39, %38 ], [ 0, %.lr.ph.i.preheader ]
  %33 = getelementptr inbounds ptr, ptr %1, i64 %.08.i
  %34 = load ptr, ptr %33, align 8
  %35 = getelementptr inbounds i8, ptr %34, i64 8
  %36 = load ptr, ptr %35, align 8
  %37 = tail call zeroext i1 @str_eq(ptr noundef %36, ptr noundef %32) #8
  br i1 %37, label %find_library.exit, label %38

38:                                               ; preds = %.lr.ph.i
  %39 = add nuw i64 %.08.i, 1
  %exitcond.not.i = icmp eq i64 %39, %2
  br i1 %exitcond.not.i, label %._crit_edge.i, label %.lr.ph.i, !llvm.loop !14

._crit_edge.i:                                    ; preds = %38, %.lr.ph78.split.us
  %40 = phi ptr [ %29, %.lr.ph78.split.us ], [ %32, %38 ]
  tail call void (ptr, ...) @error_exit(ptr noundef nonnull @.str.28, ptr noundef %40) #9
  unreachable

find_library.exit:                                ; preds = %.lr.ph.i
  %41 = getelementptr inbounds ptr, ptr %1, i64 %.08.i
  %42 = load ptr, ptr %41, align 8
  tail call fastcc void @add_library_dependency(ptr noundef %42, ptr noundef nonnull %1, i64 noundef %2)
  %indvars.iv.next95 = add nuw nsw i64 %indvars.iv94, 1
  %exitcond98.not = icmp eq i64 %indvars.iv.next95, %wide.trip.count97
  br i1 %exitcond98.not, label %._crit_edge79, label %.lr.ph.i.preheader, !llvm.loop !20

._crit_edge79:                                    ; preds = %find_library.exit, %23, %26
  %43 = getelementptr inbounds i8, ptr %15, i64 32
  %44 = load ptr, ptr %43, align 8
  %.not56 = icmp eq ptr %44, null
  br i1 %.not56, label %.loopexit, label %45

45:                                               ; preds = %._crit_edge79
  %46 = getelementptr inbounds i8, ptr %44, i64 -8
  %47 = load i32, ptr %46, align 4
  %.not85 = icmp eq i32 %47, 0
  br i1 %.not85, label %.loopexit, label %.lr.ph82

.lr.ph82:                                         ; preds = %45
  %.not.i57 = icmp eq i64 %2, 0
  br i1 %.not.i57, label %.lr.ph82.split.us, label %.lr.ph.i58.preheader.preheader

.lr.ph.i58.preheader.preheader:                   ; preds = %.lr.ph82
  %wide.trip.count102 = zext i32 %47 to i64
  br label %.lr.ph.i58.preheader

.lr.ph82.split.us:                                ; preds = %.lr.ph82
  %48 = load ptr, ptr %44, align 8
  br label %._crit_edge.i61

.lr.ph.i58.preheader:                             ; preds = %.lr.ph.i58.preheader.preheader, %find_library.exit62
  %indvars.iv99 = phi i64 [ 0, %.lr.ph.i58.preheader.preheader ], [ %indvars.iv.next100, %find_library.exit62 ]
  %49 = load ptr, ptr %43, align 8
  %50 = getelementptr inbounds ptr, ptr %49, i64 %indvars.iv99
  %51 = load ptr, ptr %50, align 8
  br label %.lr.ph.i58

.lr.ph.i58:                                       ; preds = %.lr.ph.i58.preheader, %57
  %.08.i59 = phi i64 [ %58, %57 ], [ 0, %.lr.ph.i58.preheader ]
  %52 = getelementptr inbounds ptr, ptr %1, i64 %.08.i59
  %53 = load ptr, ptr %52, align 8
  %54 = getelementptr inbounds i8, ptr %53, i64 8
  %55 = load ptr, ptr %54, align 8
  %56 = tail call zeroext i1 @str_eq(ptr noundef %55, ptr noundef %51) #8
  br i1 %56, label %find_library.exit62, label %57

57:                                               ; preds = %.lr.ph.i58
  %58 = add nuw i64 %.08.i59, 1
  %exitcond.not.i60 = icmp eq i64 %58, %2
  br i1 %exitcond.not.i60, label %._crit_edge.i61, label %.lr.ph.i58, !llvm.loop !14

._crit_edge.i61:                                  ; preds = %57, %.lr.ph82.split.us
  %59 = phi ptr [ %48, %.lr.ph82.split.us ], [ %51, %57 ]
  tail call void (ptr, ...) @error_exit(ptr noundef nonnull @.str.28, ptr noundef %59) #9
  unreachable

find_library.exit62:                              ; preds = %.lr.ph.i58
  %60 = getelementptr inbounds ptr, ptr %1, i64 %.08.i59
  %61 = load ptr, ptr %60, align 8
  tail call fastcc void @add_library_dependency(ptr noundef %61, ptr noundef nonnull %1, i64 noundef %2)
  %indvars.iv.next100 = add nuw nsw i64 %indvars.iv99, 1
  %exitcond103.not = icmp eq i64 %indvars.iv.next100, %wide.trip.count102
  br i1 %exitcond103.not, label %.loopexit, label %.lr.ph.i58.preheader, !llvm.loop !21

.loopexit:                                        ; preds = %find_library.exit62, %._crit_edge79, %45, %3
  ret void
}